target datalayout = "e-m:e-p270:32:32-p271:32:32-p272:64:64-i64:64-i128:128-f80:128-n8:16:32:64-S128"
target triple = "x86_64-pc-linux-gnu"

%struct.mbedtls_ssl_context = type { ptr, i32, i32, i32, i32, i32, ptr, ptr, ptr, ptr, ptr, ptr, ptr, ptr, ptr, ptr, ptr, ptr, ptr, ptr, ptr, ptr, ptr, ptr, ptr, ptr, ptr, ptr, ptr, ptr, ptr, ptr, ptr, i32, i64, i64, i16, i64, i64, i64, i64, i32, i32, i8, i8, i32, i8, ptr, ptr, ptr, ptr, ptr, ptr, ptr, i32, i64, i64, [8 x i8], i16, ptr, ptr, ptr, i64, i32, i64, [12 x i8], [12 x i8], [32 x i8], i8, i8, ptr, ptr, %union.mbedtls_ssl_user_data_t }
%union.mbedtls_ssl_user_data_t = type { i64 }
%struct.mbedtls_mpi = type { ptr, i16, i16 }
%struct.mbedtls_md_context_t = type { ptr, ptr, ptr }
%struct.mbedtls_ssl_handshake_params = type { i8, i8, i8, i8, i8, i32, i8, i8, i8, i8, ptr, ptr, ptr, ptr, ptr, i8, i8, i8, i8, i16, i16, [20 x i16], ptr, ptr, %struct.mbedtls_dhm_context, %struct.mbedtls_ecdh_context, i16, i64, i32, i8, [1024 x i8], i64, ptr, ptr, i64, i16, ptr, ptr, ptr, ptr, %struct.anon, ptr, i16, i8, i32, i32, i32, ptr, ptr, ptr, i32, ptr, [8 x i8], i8, [32 x i8], i8, i16, %struct.mbedtls_md_context_t, %struct.mbedtls_md_context_t, i16, i8, %union.anon.1, [64 x i8], [1076 x i8], i64, i32, i32, i8, ptr, ptr, %union.anon.4, %struct.mbedtls_ssl_tls13_handshake_secrets, ptr, i64, ptr }
%struct.mbedtls_dhm_context = type { %struct.mbedtls_mpi, %struct.mbedtls_mpi, %struct.mbedtls_mpi, %struct.mbedtls_mpi, %struct.mbedtls_mpi, %struct.mbedtls_mpi, %struct.mbedtls_mpi, %struct.mbedtls_mpi, %struct.mbedtls_mpi, %struct.mbedtls_mpi }
%struct.mbedtls_ecdh_context = type { i8, i32, i32, %union.anon }
%union.anon = type { %struct.mbedtls_ecdh_context_mbed }
%struct.mbedtls_ecdh_context_mbed = type { %struct.mbedtls_ecp_group, %struct.mbedtls_mpi, %struct.mbedtls_ecp_point, %struct.mbedtls_ecp_point, %struct.mbedtls_mpi }
%struct.mbedtls_ecp_group = type { i32, %struct.mbedtls_mpi, %struct.mbedtls_mpi, %struct.mbedtls_mpi, %struct.mbedtls_ecp_point, %struct.mbedtls_mpi, i64, i64, i32, ptr, ptr, ptr, ptr, ptr, i64 }
%struct.mbedtls_ecp_point = type { %struct.mbedtls_mpi, %struct.mbedtls_mpi, %struct.mbedtls_mpi }
%struct.anon = type { i64, i8, [4 x %struct.mbedtls_ssl_hs_buffer], %struct.anon.0 }
%struct.mbedtls_ssl_hs_buffer = type { i8, ptr, i64 }
%struct.anon.0 = type { ptr, i64, i32 }
%union.anon.1 = type { %struct.anon.2 }
%struct.anon.2 = type { i8, [64 x i8], i64 }
%union.anon.4 = type { [64 x i8] }
%struct.mbedtls_ssl_tls13_handshake_secrets = type { [64 x i8], [64 x i8] }

@.str = private unnamed_addr constant [121 x i8] c"generated/home/dtcxzyw/WorkSpace/Projects/compilers/llvm-opt-benchmark/bench/lief/bench_build/mbed_src/library/ssl_msg.c\00", align 1
@.str.188 = private unnamed_addr constant [61 x i8] c"Attempt to free buffered messages to have %u bytes available\00", align 1
@.str.189 = private unnamed_addr constant [57 x i8] c"Enough space available after freeing future epoch record\00", align 1
@.str.190 = private unnamed_addr constant [78 x i8] c"Free buffering slot %d to make space for reassembly of next handshake message\00", align 1
@.str.191 = private unnamed_addr constant [58 x i8] c"Enough space available after freeing buffered HS messages\00", align 1

; Function Attrs: nounwind uwtable
define internal void @ssl_buffering_free_slot(ptr noundef %0, i8 noundef zeroext %1) #0 {
  %3 = alloca ptr, align 8
  %4 = alloca i8, align 1
  %5 = alloca ptr, align 8
  %6 = alloca ptr, align 8
  %7 = alloca i32, align 4
  store ptr %0, ptr %3, align 8, !tbaa !3
  store i8 %1, ptr %4, align 1, !tbaa !38
  call void @llvm.lifetime.start.p0(i64 8, ptr %5) #11
  %8 = load ptr, ptr %3, align 8, !tbaa !3
  %9 = getelementptr inbounds nuw %struct.mbedtls_ssl_context, ptr %8, i32 0, i32 16
  %10 = load ptr, ptr %9, align 8, !tbaa !81
  store ptr %10, ptr %5, align 8, !tbaa !136
  call void @llvm.lifetime.start.p0(i64 8, ptr %6) #11
  %11 = load ptr, ptr %5, align 8, !tbaa !136
  %12 = getelementptr inbounds nuw %struct.mbedtls_ssl_handshake_params, ptr %11, i32 0, i32 40
  %13 = getelementptr inbounds nuw %struct.anon, ptr %12, i32 0, i32 2
  %14 = load i8, ptr %4, align 1, !tbaa !38
  %15 = zext i8 %14 to i64
  %16 = getelementptr inbounds nuw [4 x %struct.mbedtls_ssl_hs_buffer], ptr %13, i64 0, i64 %15
  store ptr %16, ptr %6, align 8, !tbaa !145
  %17 = load i8, ptr %4, align 1, !tbaa !38
  %18 = zext i8 %17 to i32
  %19 = icmp sge i32 %18, 4
  br i1 %19, label %20, label %21

20:                                               ; preds = %2
  store i32 1, ptr %7, align 4
  br label %44

21:                                               ; preds = %2
  %22 = load ptr, ptr %6, align 8, !tbaa !145
  %23 = load i8, ptr %22, align 8
  %24 = and i8 %23, 1
  %25 = zext i8 %24 to i32
  %26 = icmp eq i32 %25, 1
  br i1 %26, label %27, label %43

27:                                               ; preds = %21
  %28 = load ptr, ptr %6, align 8, !tbaa !145
  %29 = getelementptr inbounds nuw %struct.mbedtls_ssl_hs_buffer, ptr %28, i32 0, i32 2
  %30 = load i64, ptr %29, align 8, !tbaa !149
  %31 = load ptr, ptr %5, align 8, !tbaa !136
  %32 = getelementptr inbounds nuw %struct.mbedtls_ssl_handshake_params, ptr %31, i32 0, i32 40
  %33 = getelementptr inbounds nuw %struct.anon, ptr %32, i32 0, i32 0
  %34 = load i64, ptr %33, align 8, !tbaa !151
  %35 = sub i64 %34, %30
  store i64 %35, ptr %33, align 8, !tbaa !151
  %36 = load ptr, ptr %6, align 8, !tbaa !145
  %37 = getelementptr inbounds nuw %struct.mbedtls_ssl_hs_buffer, ptr %36, i32 0, i32 1
  %38 = load ptr, ptr %37, align 8, !tbaa !152
  %39 = load ptr, ptr %6, align 8, !tbaa !145
  %40 = getelementptr inbounds nuw %struct.mbedtls_ssl_hs_buffer, ptr %39, i32 0, i32 2
  %41 = load i64, ptr %40, align 8, !tbaa !149
  call void @mbedtls_zeroize_and_free(ptr noundef %38, i64 noundef %41)
  %42 = load ptr, ptr %6, align 8, !tbaa !145
  call void @llvm.memset.p0.i64(ptr align 8 %42, i8 0, i64 24, i1 false)
  br label %43

43:                                               ; preds = %27, %21
  store i32 0, ptr %7, align 4
  br label %44

44:                                               ; preds = %43, %20
  call void @llvm.lifetime.end.p0(i64 8, ptr %6) #11
  call void @llvm.lifetime.end.p0(i64 8, ptr %5) #11
  %45 = load i32, ptr %7, align 4
  switch i32 %45, label %47 [
    i32 0, label %46
    i32 1, label %46
  ]

46:                                               ; preds = %44, %44
  ret void

47:                                               ; preds = %44
  unreachable
}

; Function Attrs: nounwind uwtable
define internal void @ssl_free_buffered_record(ptr noundef %0) #0 {
  %2 = alloca ptr, align 8
  %3 = alloca ptr, align 8
  %4 = alloca i32, align 4
  store ptr %0, ptr %2, align 8, !tbaa !3
  call void @llvm.lifetime.start.p0(i64 8, ptr %3) #11
  %5 = load ptr, ptr %2, align 8, !tbaa !3
  %6 = getelementptr inbounds nuw %struct.mbedtls_ssl_context, ptr %5, i32 0, i32 16
  %7 = load ptr, ptr %6, align 8, !tbaa !81
  store ptr %7, ptr %3, align 8, !tbaa !136
  %8 = load ptr, ptr %3, align 8, !tbaa !136
  %9 = icmp eq ptr %8, null
  br i1 %9, label %10, label %11

10:                                               ; preds = %1
  store i32 1, ptr %4, align 4
  br label %39

11:                                               ; preds = %1
  %12 = load ptr, ptr %3, align 8, !tbaa !136
  %13 = getelementptr inbounds nuw %struct.mbedtls_ssl_handshake_params, ptr %12, i32 0, i32 40
  %14 = getelementptr inbounds nuw %struct.anon, ptr %13, i32 0, i32 3
  %15 = getelementptr inbounds nuw %struct.anon.0, ptr %14, i32 0, i32 0
  %16 = load ptr, ptr %15, align 8, !tbaa !176
  %17 = icmp ne ptr %16, null
  br i1 %17, label %18, label %38

18:                                               ; preds = %11
  %19 = load ptr, ptr %3, align 8, !tbaa !136
  %20 = getelementptr inbounds nuw %struct.mbedtls_ssl_handshake_params, ptr %19, i32 0, i32 40
  %21 = getelementptr inbounds nuw %struct.anon, ptr %20, i32 0, i32 3
  %22 = getelementptr inbounds nuw %struct.anon.0, ptr %21, i32 0, i32 1
  %23 = load i64, ptr %22, align 8, !tbaa !177
  %24 = load ptr, ptr %3, align 8, !tbaa !136
  %25 = getelementptr inbounds nuw %struct.mbedtls_ssl_handshake_params, ptr %24, i32 0, i32 40
  %26 = getelementptr inbounds nuw %struct.anon, ptr %25, i32 0, i32 0
  %27 = load i64, ptr %26, align 8, !tbaa !151
  %28 = sub i64 %27, %23
  store i64 %28, ptr %26, align 8, !tbaa !151
  %29 = load ptr, ptr %3, align 8, !tbaa !136
  %30 = getelementptr inbounds nuw %struct.mbedtls_ssl_handshake_params, ptr %29, i32 0, i32 40
  %31 = getelementptr inbounds nuw %struct.anon, ptr %30, i32 0, i32 3
  %32 = getelementptr inbounds nuw %struct.anon.0, ptr %31, i32 0, i32 0
  %33 = load ptr, ptr %32, align 8, !tbaa !176
  call void @free(ptr noundef %33) #11
  %34 = load ptr, ptr %3, align 8, !tbaa !136
  %35 = getelementptr inbounds nuw %struct.mbedtls_ssl_handshake_params, ptr %34, i32 0, i32 40
  %36 = getelementptr inbounds nuw %struct.anon, ptr %35, i32 0, i32 3
  %37 = getelementptr inbounds nuw %struct.anon.0, ptr %36, i32 0, i32 0
  store ptr null, ptr %37, align 8, !tbaa !176
  br label %38

38:                                               ; preds = %18, %11
  store i32 0, ptr %4, align 4
  br label %39

39:                                               ; preds = %38, %10
  call void @llvm.lifetime.end.p0(i64 8, ptr %3) #11
  %40 = load i32, ptr %4, align 4
  switch i32 %40, label %42 [
    i32 0, label %41
    i32 1, label %41
  ]

41:                                               ; preds = %39, %39
  ret void

42:                                               ; preds = %39
  unreachable
}

; Function Attrs: nounwind uwtable
define internal i32 @ssl_buffer_make_space(ptr noundef %0, i64 noundef %1) #0 {
  %3 = alloca i32, align 4
  %4 = alloca ptr, align 8
  %5 = alloca i64, align 8
  %6 = alloca i32, align 4
  %7 = alloca ptr, align 8
  %8 = alloca i32, align 4
  store ptr %0, ptr %4, align 8, !tbaa !3
  store i64 %1, ptr %5, align 8, !tbaa !22
  call void @llvm.lifetime.start.p0(i64 4, ptr %6) #11
  call void @llvm.lifetime.start.p0(i64 8, ptr %7) #11
  %9 = load ptr, ptr %4, align 8, !tbaa !3
  %10 = getelementptr inbounds nuw %struct.mbedtls_ssl_context, ptr %9, i32 0, i32 16
  %11 = load ptr, ptr %10, align 8, !tbaa !81
  store ptr %11, ptr %7, align 8, !tbaa !136
  %12 = load ptr, ptr %4, align 8, !tbaa !3
  %13 = load i64, ptr %5, align 8, !tbaa !22
  %14 = trunc i64 %13 to i32
  call void (ptr, i32, ptr, i32, ptr, ...) @mbedtls_debug_print_msg(ptr noundef %12, i32 noundef 2, ptr noundef @.str, i32 noundef 4373, ptr noundef @.str.188, i32 noundef %14)
  %15 = load ptr, ptr %4, align 8, !tbaa !3
  call void @ssl_free_buffered_record(ptr noundef %15)
  %16 = load i64, ptr %5, align 8, !tbaa !22
  %17 = load ptr, ptr %7, align 8, !tbaa !136
  %18 = getelementptr inbounds nuw %struct.mbedtls_ssl_handshake_params, ptr %17, i32 0, i32 40
  %19 = getelementptr inbounds nuw %struct.anon, ptr %18, i32 0, i32 0
  %20 = load i64, ptr %19, align 8, !tbaa !151
  %21 = sub i64 32768, %20
  %22 = icmp ule i64 %16, %21
  br i1 %22, label %23, label %25

23:                                               ; preds = %2
  %24 = load ptr, ptr %4, align 8, !tbaa !3
  call void (ptr, i32, ptr, i32, ptr, ...) @mbedtls_debug_print_msg(ptr noundef %24, i32 noundef 2, ptr noundef @.str, i32 noundef 4381, ptr noundef @.str.189)
  store i32 0, ptr %3, align 4
  store i32 1, ptr %8, align 4
  br label %49

25:                                               ; preds = %2
  store i32 3, ptr %6, align 4, !tbaa !8
  br label %26

26:                                               ; preds = %45, %25
  %27 = load i32, ptr %6, align 4, !tbaa !8
  %28 = icmp sge i32 %27, 0
  br i1 %28, label %29, label %48

29:                                               ; preds = %26
  %30 = load ptr, ptr %4, align 8, !tbaa !3
  %31 = load i32, ptr %6, align 4, !tbaa !8
  call void (ptr, i32, ptr, i32, ptr, ...) @mbedtls_debug_print_msg(ptr noundef %30, i32 noundef 2, ptr noundef @.str, i32 noundef 4393, ptr noundef @.str.190, i32 noundef %31)
  %32 = load ptr, ptr %4, align 8, !tbaa !3
  %33 = load i32, ptr %6, align 4, !tbaa !8
  %34 = trunc i32 %33 to i8
  call void @ssl_buffering_free_slot(ptr noundef %32, i8 noundef zeroext %34)
  %35 = load i64, ptr %5, align 8, !tbaa !22
  %36 = load ptr, ptr %7, align 8, !tbaa !136
  %37 = getelementptr inbounds nuw %struct.mbedtls_ssl_handshake_params, ptr %36, i32 0, i32 40
  %38 = getelementptr inbounds nuw %struct.anon, ptr %37, i32 0, i32 0
  %39 = load i64, ptr %38, align 8, !tbaa !151
  %40 = sub i64 32768, %39
  %41 = icmp ule i64 %35, %40
  br i1 %41, label %42, label %44

42:                                               ; preds = %29
  %43 = load ptr, ptr %4, align 8, !tbaa !3
  call void (ptr, i32, ptr, i32, ptr, ...) @mbedtls_debug_print_msg(ptr noundef %43, i32 noundef 2, ptr noundef @.str, i32 noundef 4400, ptr noundef @.str.191)
  store i32 0, ptr %3, align 4
  store i32 1, ptr %8, align 4
  br label %49

44:                                               ; preds = %29
  br label %45

45:                                               ; preds = %44
  %46 = load i32, ptr %6, align 4, !tbaa !8
  %47 = add nsw i32 %46, -1
  store i32 %47, ptr %6, align 4, !tbaa !8
  br label %26, !llvm.loop !185

48:                                               ; preds = %26
  store i32 -1, ptr %3, align 4
  store i32 1, ptr %8, align 4
  br label %49

49:                                               ; preds = %48, %42, %23
  call void @llvm.lifetime.end.p0(i64 8, ptr %7) #11
  call void @llvm.lifetime.end.p0(i64 4, ptr %6) #11
  %50 = load i32, ptr %3, align 4
  ret i32 %50
}