; Function Attrs: nounwind uwtable
define internal fastcc range(i32 -1, 1) i32 @ssl_buffer_make_space(ptr noundef %0, i64 noundef %1) unnamed_addr #0 {
  %3 = getelementptr inbounds nuw i8, ptr %0, i64 112
  %4 = load ptr, ptr %3, align 8, !tbaa !75
  %5 = trunc i64 %1 to i32
  tail call void (ptr, i32, ptr, i32, ptr, ...) @mbedtls_debug_print_msg(ptr noundef %0, i32 noundef 2, ptr noundef nonnull @.str, i32 noundef 4373, ptr noundef nonnull @.str.188, i32 noundef %5) #19
  %.val = load ptr, ptr %3, align 8, !tbaa !75
  %6 = icmp eq ptr %.val, null
  br i1 %6, label %ssl_free_buffered_record.exit, label %7

7:                                                ; preds = %2
  %8 = getelementptr inbounds nuw i8, ptr %.val, i64 1848
  %9 = load ptr, ptr %8, align 8, !tbaa !129
  %.not.i = icmp eq ptr %9, null
  br i1 %.not.i, label %ssl_free_buffered_record.exit, label %10

10:                                               ; preds = %7
  %11 = getelementptr inbounds nuw i8, ptr %.val, i64 1736
  %12 = getelementptr inbounds nuw i8, ptr %.val, i64 1856
  %13 = load i64, ptr %12, align 8, !tbaa !130
  %14 = load i64, ptr %11, align 8, !tbaa !131
  %15 = sub i64 %14, %13
  store i64 %15, ptr %11, align 8, !tbaa !131
  tail call void @free(ptr noundef nonnull %9) #19
  store ptr null, ptr %8, align 8, !tbaa !129
  br label %ssl_free_buffered_record.exit

ssl_free_buffered_record.exit:                    ; preds = %2, %7, %10
  %16 = getelementptr inbounds nuw i8, ptr %4, i64 1736
  %17 = load i64, ptr %16, align 8, !tbaa !131
  %18 = sub i64 32768, %17
  %.not = icmp ugt i64 %1, %18
  br i1 %.not, label %.preheader, label %19

19:                                               ; preds = %ssl_free_buffered_record.exit
  tail call void (ptr, i32, ptr, i32, ptr, ...) @mbedtls_debug_print_msg(ptr noundef nonnull %0, i32 noundef 2, ptr noundef nonnull @.str, i32 noundef 4381, ptr noundef nonnull @.str.189) #19
  br label %.loopexit

20:                                               ; preds = %ssl_buffering_free_slot.exit
  %indvars.iv.next = add nsw i64 %indvars.iv, -1
  %.not25 = icmp eq i64 %indvars.iv, 0
  br i1 %.not25, label %.loopexit, label %.preheader, !llvm.loop !172

.preheader:                                       ; preds = %ssl_free_buffered_record.exit, %20
  %indvars.iv = phi i64 [ %indvars.iv.next, %20 ], [ 3, %ssl_free_buffered_record.exit ]
  %21 = trunc nuw nsw i64 %indvars.iv to i32
  tail call void (ptr, i32, ptr, i32, ptr, ...) @mbedtls_debug_print_msg(ptr noundef nonnull %0, i32 noundef 2, ptr noundef nonnull @.str, i32 noundef 4393, ptr noundef nonnull @.str.190, i32 noundef %21) #19
  %.val19 = load ptr, ptr %3, align 8, !tbaa !75
  %22 = getelementptr inbounds nuw i8, ptr %.val19, i64 1736
  %23 = getelementptr inbounds nuw i8, ptr %.val19, i64 1752
  %24 = getelementptr inbounds nuw [4 x %struct.mbedtls_ssl_hs_buffer], ptr %23, i64 0, i64 %indvars.iv
  %25 = and i32 %21, 252
  %.not21 = icmp eq i32 %25, 0
  br i1 %.not21, label %26, label %ssl_buffering_free_slot.exit

26:                                               ; preds = %.preheader
  %27 = load i8, ptr %24, align 8
  %28 = and i8 %27, 1
  %.not.i20 = icmp eq i8 %28, 0
  br i1 %.not.i20, label %ssl_buffering_free_slot.exit, label %29

29:                                               ; preds = %26
  %30 = getelementptr inbounds nuw i8, ptr %24, i64 16
  %31 = load i64, ptr %30, align 8, !tbaa !132
  %32 = load i64, ptr %22, align 8, !tbaa !131
  %33 = sub i64 %32, %31
  store i64 %33, ptr %22, align 8, !tbaa !131
  %34 = getelementptr inbounds nuw i8, ptr %24, i64 8
  %35 = load ptr, ptr %34, align 8, !tbaa !134
  tail call void @mbedtls_zeroize_and_free(ptr noundef %35, i64 noundef %31) #19
  tail call void @llvm.memset.p0.i64(ptr noundef nonnull align 8 dereferenceable(24) %24, i8 0, i64 24, i1 false)
  br label %ssl_buffering_free_slot.exit

ssl_buffering_free_slot.exit:                     ; preds = %.preheader, %26, %29
  %36 = load i64, ptr %16, align 8, !tbaa !131
  %37 = sub i64 32768, %36
  %.not18 = icmp ugt i64 %1, %37
  br i1 %.not18, label %20, label %38

38:                                               ; preds = %ssl_buffering_free_slot.exit
  tail call void (ptr, i32, ptr, i32, ptr, ...) @mbedtls_debug_print_msg(ptr noundef nonnull %0, i32 noundef 2, ptr noundef nonnull @.str, i32 noundef 4400, ptr noundef nonnull @.str.191) #19
  br label %.loopexit

.loopexit:                                        ; preds = %20, %38, %19
  %.0 = phi i32 [ 0, %19 ], [ 0, %38 ], [ -1, %20 ]
  ret i32 %.0
}